(dp0
S'METTS MARK'
p1
(dp2
S'to_messages'
p3
F807.0
sS'deferral_payments'
p4
F0.0
sS'expenses'
p5
F94299.0
sS'poi'
p6
I00
sS'long_term_incentive'
p7
F0.0
sS'email_address'
p8
S'mark.metts@enron.com'
p9
sS'from_poi_to_this_person'
p10
F38.0
sS'deferred_income'
p11
F0.0
sS'capital_in_hand'
p12
F1061827.0
sS'restricted_stock_deferred'
p13
F0.0
sS'shared_receipt_with_poi'
p14
F702.0
sS'loan_advances'
p15
F0.0
sS'from_messages'
p16
F29.0
sS'other'
p17
F1740.0
sS'to_poi_ratio'
p18
F0.0012391573729863693
sS'director_fees'
p19
F0.0
sS'bonus'
p20
F600000.0
sS'total_stock_value'
p21
F585062.0
sS'from_this_person_to_poi'
p22
F1.0
sS'from_poi_ratio'
p23
F1.3103448275862069
sS'restricted_stock'
p24
F585062.0
sS'salary'
p25
F365788.0
sS'email_involvement'
p26
F1538.0
sS'total_payments'
p27
F1061827.0
sS'poi_email_engagement'
p28
F0.04665071770334928
sS'exercised_stock_options'
p29
F0.0
ssS'BAXTER JOHN C'
p30
(dp31
g3
F0.0
sg4
F1295738.0
sg5
F11200.0
sg6
I00
sg7
F1586055.0
sg8
F0.0
sg10
F0.0
sg11
F-1386055.0
sg12
F12314887.0
sg13
F0.0
sg14
F0.0
sg15
F0.0
sg16
F0.0
sg17
F2660303.0
sg18
F0.0
sg19
F0.0
sg20
F1200000.0
sg21
F10623258.0
sg22
F0.0
sg23
F0.0
sg24
F3942714.0
sg25
F267102.0
sg26
F0.0
sg27
F5634343.0
sg28
F0.0
sg29
F6680544.0
ssS'ELLIOTT STEVEN'
p32
(dp33
g3
F0.0
sg4
F0.0
sg5
F78552.0
sg6
I00
sg7
F0.0
sg8
S'steven.elliott@enron.com'
p34
sg10
F0.0
sg11
F-400729.0
sg12
F5102069.0
sg13
F0.0
sg14
F0.0
sg15
F0.0
sg16
F0.0
sg17
F12961.0
sg18
F0.0
sg19
F0.0
sg20
F350000.0
sg21
F6678735.0
sg22
F0.0
sg23
F0.0
sg24
F1788391.0
sg25
F170941.0
sg26
F0.0
sg27
F211725.0
sg28
F0.0
sg29
F4890344.0
ssS'CORDES WILLIAM R'
p35
(dp36
g3
F764.0
sg4
F0.0
sg5
F0.0
sg6
I00
sg7
F0.0
sg8
S'bill.cordes@enron.com'
p37
sg10
F10.0
sg11
F0.0
sg12
F651850.0
sg13
F0.0
sg14
F58.0
sg15
F0.0
sg16
F12.0
sg17
F0.0
sg18
F0.0
sg19
F0.0
sg20
F0.0
sg21
F1038185.0
sg22
F0.0
sg23
F0.8333333333333334
sg24
F386335.0
sg25
F0.0
sg26
F834.0
sg27
F0.0
sg28
F0.01288659793814433
sg29
F651850.0
ssS'HANNON KEVIN P'
p38
(dp39
g3
F1045.0
sg4
F0.0
sg5
F34039.0
sg6
I01
sg7
F1617011.0
sg8
S'kevin.hannon@enron.com'
p40
sg10
F32.0
sg11
F-3117011.0
sg12
F5826683.0
sg13
F0.0
sg14
F1035.0
sg15
F0.0
sg16
F32.0
sg17
F11350.0
sg18
F0.020095693779904306
sg19
F0.0
sg20
F1500000.0
sg21
F6391065.0
sg22
F21.0
sg23
F1.0
sg24
F853064.0
sg25
F243293.0
sg26
F2112.0
sg27
F288682.0
sg28
F0.04921077065923862
sg29
F5538001.0
ssS'MORDAUNT KRISTINA M'
p41
(dp42
g3
F0.0
sg4
F0.0
sg5
F35018.0
sg6
I00
sg7
F0.0
sg8
S'kristina.mordaunt@enron.com'
p43
sg10
F0.0
sg11
F0.0
sg12
F628522.0
sg13
F0.0
sg14
F0.0
sg15
F0.0
sg16
F0.0
sg17
F1411.0
sg18
F0.0
sg19
F0.0
sg20
F325000.0
sg21
F208510.0
sg22
F0.0
sg23
F0.0
sg24
F208510.0
sg25
F267093.0
sg26
F0.0
sg27
F628522.0
sg28
F0.0
sg29
F0.0
ssS'MEYER ROCKFORD G'
p44
(dp45
g3
F232.0
sg4
F1848227.0
sg5
F0.0
sg6
I00
sg7
F0.0
sg8
S'rockford.meyer@enron.com'
p46
sg10
F0.0
sg11
F0.0
sg12
F2341716.0
sg13
F0.0
sg14
F22.0
sg15
F0.0
sg16
F28.0
sg17
F0.0
sg18
F0.0
sg19
F0.0
sg20
F0.0
sg21
F955873.0
sg22
F0.0
sg23
F0.0
sg24
F462384.0
sg25
F0.0
sg26
F282.0
sg27
F1848227.0
sg28
F0.0
sg29
F493489.0
ssS'MCMAHON JEFFREY'
p47
(dp48
g3
F2355.0
sg4
F0.0
sg5
F137108.0
sg6
I00
sg7
F694862.0
sg8
S'jeffrey.mcmahon@enron.com'
p49
sg10
F58.0
sg11
F0.0
sg12
F5203825.0
sg13
F0.0
sg14
F2228.0
sg15
F0.0
sg16
F48.0
sg17
F297353.0
sg18
F0.011040339702760084
sg19
F0.0
sg20
F2600000.0
sg21
F1662855.0
sg22
F26.0
sg23
F1.2083333333333333
sg24
F558801.0
sg25
F370448.0
sg26
F4631.0
sg27
F4099771.0
sg28
F0.03495630461922597
sg29
F1104054.0
ssS'HORTON STANLEY C'
p50
(dp51
g3
F2350.0
sg4
F3131860.0
sg5
F0.0
sg6
I00
sg7
F0.0
sg8
S'stanley.horton@enron.com'
p52
sg10
F44.0
sg11
F0.0
sg12
F8342429.0
sg13
F0.0
sg14
F1074.0
sg15
F0.0
sg16
F1073.0
sg17
F0.0
sg18
F0.006382978723404255
sg19
F0.0
sg20
F0.0
sg21
F7256648.0
sg22
F15.0
sg23
F0.04100652376514446
sg24
F2046079.0
sg25
F0.0
sg26
F4497.0
sg27
F3131860.0
sg28
F0.017236342389716622
sg29
F5210569.0
ssS'PIPER GREGORY F'
p53
(dp54
g3
F1238.0
sg4
F1130036.0
sg5
F43057.0
sg6
I00
sg7
F0.0
sg8
S'greg.piper@enron.com'
p55
sg10
F61.0
sg11
F-33333.0
sg12
F2617919.0
sg13
F-409554.0
sg14
F742.0
sg15
F0.0
sg16
F222.0
sg17
F778.0
sg18
F0.03877221324717286
sg19
F0.0
sg20
F400000.0
sg21
F880290.0
sg22
F48.0
sg23
F0.2747747747747748
sg24
F409554.0
sg25
F197091.0
sg26
F2202.0
sg27
F1737629.0
sg28
F0.07465753424657534
sg29
F880290.0
ssS'HUMPHREY GENE E'
p56
(dp57
g3
F128.0
sg4
F2964506.0
sg5
F4994.0
sg6
I00
sg7
F0.0
sg8
S'gene.humphrey@enron.com'
p58
sg10
F10.0
sg11
F0.0
sg12
F5382992.0
sg13
F0.0
sg14
F119.0
sg15
F0.0
sg16
F17.0
sg17
F0.0
sg18
F0.1328125
sg19
F0.0
sg20
F0.0
sg21
F2282768.0
sg22
F17.0
sg23
F0.5882352941176471
sg24
F0.0
sg25
F130724.0
sg26
F264.0
sg27
F3100224.0
sg28
F0.18620689655172415
sg29
F2282768.0
ssS'UMANOFF ADAM S'
p59
(dp60
g3
F111.0
sg4
F0.0
sg5
F53122.0
sg6
I00
sg7
F0.0
sg8
S'adam.umanoff@enron.com'
p61
sg10
F12.0
sg11
F0.0
sg12
F1130461.0
sg13
F0.0
sg14
F41.0
sg15
F0.0
sg16
F18.0
sg17
F0.0
sg18
F0.0
sg19
F0.0
sg20
F788750.0
sg21
F0.0
sg22
F0.0
sg23
F0.6666666666666666
sg24
F0.0
sg25
F288589.0
sg26
F170.0
sg27
F1130461.0
sg28
F0.09302325581395349
sg29
F0.0
ssS'BLACHMAN JEREMY M'
p62
(dp63
g3
F2475.0
sg4
F0.0
sg5
F84208.0
sg6
I00
sg7
F831809.0
sg8
S'jeremy.blachman@enron.com'
p64
sg10
F25.0
sg11
F0.0
sg12
F2780148.0
sg13
F0.0
sg14
F2326.0
sg15
F0.0
sg16
F14.0
sg17
F272.0
sg18
F0.0008080808080808081
sg19
F0.0
sg20
F850000.0
sg21
F954354.0
sg22
F2.0
sg23
F1.7857142857142858
sg24
F189041.0
sg25
F248546.0
sg26
F4815.0
sg27
F2014835.0
sg28
F0.010847730012053034
sg29
F765313.0
ssS'SUNDE MARTIN'
p65
(dp66
g3
F2647.0
sg4
F0.0
sg5
F0.0
sg6
I00
sg7
F476451.0
sg8
S'marty.sunde@enron.com'
p67
sg10
F37.0
sg11
F0.0
sg12
F1545059.0
sg13
F0.0
sg14
F2565.0
sg15
F0.0
sg16
F38.0
sg17
F111122.0
sg18
F0.004911220249338874
sg19
F0.0
sg20
F700000.0
sg21
F698920.0
sg22
F13.0
sg23
F0.9736842105263158
sg24
F698920.0
sg25
F257486.0
sg26
F5250.0
sg27
F1545059.0
sg28
F0.0186219739292365
sg29
F0.0
ssS'GIBBS DANA R'
p68
(dp69
g3
F169.0
sg4
F504610.0
sg5
F0.0
sg6
I00
sg7
F461912.0
sg8
S'dana.gibbs@enron.com'
p70
sg10
F0.0
sg11
F0.0
sg12
F3184797.0
sg13
F0.0
sg14
F23.0
sg15
F0.0
sg16
F12.0
sg17
F0.0
sg18
F0.0
sg19
F0.0
sg20
F0.0
sg21
F2218275.0
sg22
F0.0
sg23
F0.0
sg24
F0.0
sg25
F0.0
sg26
F204.0
sg27
F966522.0
sg28
F0.0
sg29
F2218275.0
ssS'LOWRY CHARLES P'
p71
(dp72
g3
F0.0
sg4
F0.0
sg5
F0.0
sg6
I00
sg7
F0.0
sg8
F0.0
sg10
F0.0
sg11
F0.0
sg12
F372205.0
sg13
F-153686.0
sg14
F0.0
sg15
F0.0
sg16
F0.0
sg17
F0.0
sg18
F0.0
sg19
F0.0
sg20
F0.0
sg21
F372205.0
sg22
F0.0
sg23
F0.0
sg24
F153686.0
sg25
F0.0
sg26
F0.0
sg27
F0.0
sg28
F0.0
sg29
F372205.0
ssS'COLWELL WESLEY'
p73
(dp74
g3
F1758.0
sg4
F27610.0
sg5
F16514.0
sg6
I01
sg7
F0.0
sg8
S'wes.colwell@enron.com'
p75
sg10
F240.0
sg11
F-144062.0
sg12
F1490344.0
sg13
F0.0
sg14
F1132.0
sg15
F0.0
sg16
F40.0
sg17
F101740.0
sg18
F0.006257110352673493
sg19
F0.0
sg20
F1200000.0
sg21
F698242.0
sg22
F11.0
sg23
F6.0
sg24
F698242.0
sg25
F288542.0
sg26
F2930.0
sg27
F1490344.0
sg28
F0.13959955506117908
sg29
F0.0
ssS'MULLER MARK S'
p76
(dp77
g3
F136.0
sg4
F842924.0
sg5
F0.0
sg6
I00
sg7
F1725545.0
sg8
S's..muller@enron.com'
p78
sg10
F12.0
sg11
F-719000.0
sg12
F4258390.0
sg13
F0.0
sg14
F114.0
sg15
F0.0
sg16
F16.0
sg17
F947.0
sg18
F0.0
sg19
F0.0
sg20
F1100000.0
sg21
F1416848.0
sg22
F0.0
sg23
F0.75
sg24
F360528.0
sg25
F251654.0
sg26
F266.0
sg27
F3202070.0
sg28
F0.07894736842105263
sg29
F1056320.0
ssS'JACKSON CHARLENE R'
p79
(dp80
g3
F258.0
sg4
F0.0
sg5
F10181.0
sg6
I00
sg7
F0.0
sg8
S'charlene.jackson@enron.com'
p81
sg10
F25.0
sg11
F0.0
sg12
F736237.0
sg13
F0.0
sg14
F117.0
sg15
F0.0
sg16
F56.0
sg17
F2435.0
sg18
F0.07364341085271318
sg19
F0.0
sg20
F250000.0
sg21
F725735.0
sg22
F19.0
sg23
F0.44642857142857145
sg24
F540672.0
sg25
F288558.0
sg26
F431.0
sg27
F551174.0
sg28
F0.14012738853503184
sg29
F185063.0
ssS'WESTFAHL RICHARD K'
p82
(dp83
g3
F0.0
sg4
F0.0
sg5
F51870.0
sg6
I00
sg7
F256191.0
sg8
S'dick.westfahl@enron.com'
p84
sg10
F0.0
sg11
F-10800.0
sg12
F762135.0
sg13
F0.0
sg14
F0.0
sg15
F0.0
sg16
F0.0
sg17
F401130.0
sg18
F0.0
sg19
F0.0
sg20
F0.0
sg21
F384930.0
sg22
F0.0
sg23
F0.0
sg24
F384930.0
sg25
F63744.0
sg26
F0.0
sg27
F762135.0
sg28
F0.0
sg29
F0.0
ssS'WALTERS GARETH W'
p85
(dp86
g3
F0.0
sg4
F53625.0
sg5
F33785.0
sg6
I00
sg7
F0.0
sg8
F0.0
sg10
F0.0
sg11
F0.0
sg12
F1117739.0
sg13
F0.0
sg14
F0.0
sg15
F0.0
sg16
F0.0
sg17
F0.0
sg18
F0.0
sg19
F0.0
sg20
F0.0
sg21
F1030329.0
sg22
F0.0
sg23
F0.0
sg24
F0.0
sg25
F0.0
sg26
F0.0
sg27
F87410.0
sg28
F0.0
sg29
F1030329.0
ssS'WALLS JR ROBERT H'
p87
(dp88
g3
F671.0
sg4
F0.0
sg5
F50936.0
sg6
I00
sg7
F540751.0
sg8
S'rob.walls@enron.com'
p89
sg10
F17.0
sg11
F0.0
sg12
F6145324.0
sg13
F0.0
sg14
F215.0
sg15
F0.0
sg16
F146.0
sg17
F2.0
sg18
F0.0
sg19
F0.0
sg20
F850000.0
sg21
F5898997.0
sg22
F0.0
sg23
F0.11643835616438356
sg24
F1552453.0
sg25
F357091.0
sg26
F1032.0
sg27
F1798780.0
sg28
F0.0208078335373317
sg29
F4346544.0
ssS'KITCHEN LOUISE'
p90
(dp91
g3
F8305.0
sg4
F0.0
sg5
F5774.0
sg6
I00
sg7
F0.0
sg8
S'louise.kitchen@enron.com'
p92
sg10
F251.0
sg11
F0.0
sg12
F3552183.0
sg13
F0.0
sg14
F3669.0
sg15
F0.0
sg16
F1728.0
sg17
F93925.0
sg18
F0.023359422034918725
sg19
F0.0
sg20
F3100000.0
sg21
F547143.0
sg22
F194.0
sg23
F0.14525462962962962
sg24
F466101.0
sg25
F271442.0
sg26
F13702.0
sg27
F3471141.0
sg28
F0.044353633011063494
sg29
F81042.0
ssS'CHAN RONNIE'
p93
(dp94
g3
F0.0
sg4
F0.0
sg5
F0.0
sg6
I00
sg7
F0.0
sg8
F0.0
sg10
F0.0
sg11
F-98784.0
sg12
F0.0
sg13
F-32460.0
sg14
F0.0
sg15
F0.0
sg16
F0.0
sg17
F0.0
sg18
F0.0
sg19
F98784.0
sg20
F0.0
sg21
F0.0
sg22
F0.0
sg23
F0.0
sg24
F32460.0
sg25
F0.0
sg26
F0.0
sg27
F0.0
sg28
F0.0
sg29
F0.0
ssS'BELFER ROBERT'
p95
(dp96
g3
F0.0
sg4
F-102500.0
sg5
F0.0
sg6
I00
sg7
F0.0
sg8
F0.0
sg10
F0.0
sg11
F0.0
sg12
F105785.0
sg13
F44093.0
sg14
F0.0
sg15
F0.0
sg16
F0.0
sg17
F0.0
sg18
F0.0
sg19
F3285.0
sg20
F0.0
sg21
F-44093.0
sg22
F0.0
sg23
F0.0
sg24
F0.0
sg25
F0.0
sg26
F0.0
sg27
F102500.0
sg28
F0.0
sg29
F3285.0
ssS'SHANKMAN JEFFREY A'
p97
(dp98
g3
F3221.0
sg4
F0.0
sg5
F178979.0
sg6
I00
sg7
F554422.0
sg8
S'jeffrey.shankman@enron.com'
p99
sg10
F94.0
sg11
F0.0
sg12
F4480600.0
sg13
F0.0
sg14
F1730.0
sg15
F0.0
sg16
F2681.0
sg17
F1191.0
sg18
F0.025768394908413535
sg19
F0.0
sg20
F2000000.0
sg21
F2072035.0
sg22
F83.0
sg23
F0.0350615441999254
sg24
F630137.0
sg25
F304110.0
sg26
F7632.0
sg27
F3038702.0
sg28
F0.029989833954591663
sg29
F1441898.0
ssS'WODRASKA JOHN'
p100
(dp101
g3
F0.0
sg4
F0.0
sg5
F0.0
sg6
I00
sg7
F0.0
sg8
S'john.wodraska@enron.com'
p102
sg10
F0.0
sg11
F0.0
sg12
F189583.0
sg13
F0.0
sg14
F0.0
sg15
F0.0
sg16
F0.0
sg17
F189583.0
sg18
F0.0
sg19
F0.0
sg20
F0.0
sg21
F0.0
sg22
F0.0
sg23
F0.0
sg24
F0.0
sg25
F0.0
sg26
F0.0
sg27
F189583.0
sg28
F0.0
sg29
F0.0
ssS'BERGSIEKER RICHARD P'
p103
(dp104
g3
F383.0
sg4
F0.0
sg5
F59175.0
sg6
I00
sg7
F180250.0
sg8
S'rick.bergsieker@enron.com'
p105
sg10
F4.0
sg11
F-485813.0
sg12
F618850.0
sg13
F0.0
sg14
F233.0
sg15
F0.0
sg16
F59.0
sg17
F427316.0
sg18
F0.0
sg19
F0.0
sg20
F250000.0
sg21
F659249.0
sg22
F0.0
sg23
F0.06779661016949153
sg24
F659249.0
sg25
F187922.0
sg26
F675.0
sg27
F618850.0
sg28
F0.00904977375565611
sg29
F0.0
ssS'URQUHART JOHN A'
p106
(dp107
g3
F0.0
sg4
F0.0
sg5
F228656.0
sg6
I00
sg7
F0.0
sg8
F0.0
sg10
F0.0
sg11
F-36666.0
sg12
F228656.0
sg13
F0.0
sg14
F0.0
sg15
F0.0
sg16
F0.0
sg17
F0.0
sg18
F0.0
sg19
F36666.0
sg20
F0.0
sg21
F0.0
sg22
F0.0
sg23
F0.0
sg24
F0.0
sg25
F0.0
sg26
F0.0
sg27
F228656.0
sg28
F0.0
sg29
F0.0
ssS'BIBI PHILIPPE A'
p108
(dp109
g3
F1607.0
sg4
F0.0
sg5
F38559.0
sg6
I00
sg7
F369721.0
sg8
S'philippe.bibi@enron.com'
p110
sg10
F23.0
sg11
F0.0
sg12
F3513327.0
sg13
F0.0
sg14
F1336.0
sg15
F0.0
sg16
F40.0
sg17
F425688.0
sg18
F0.004978220286247666
sg19
F0.0
sg20
F1000000.0
sg21
F1843816.0
sg22
F8.0
sg23
F0.575
sg24
F378082.0
sg25
F213625.0
sg26
F2983.0
sg27
F2047593.0
sg28
F0.018822100789313904
sg29
F1465734.0
ssS'PIRO JIM'
p111
(dp112
g3
F58.0
sg4
F0.0
sg5
F0.0
sg6
I00
sg7
F0.0
sg8
S'jim.piro@enron.com'
p113
sg10
F0.0
sg11
F0.0
sg12
F0.0
sg13
F0.0
sg14
F3.0
sg15
F0.0
sg16
F16.0
sg17
F0.0
sg18
F0.017241379310344827
sg19
F0.0
sg20
F0.0
sg21
F47304.0
sg22
F1.0
sg23
F0.0
sg24
F47304.0
sg25
F0.0
sg26
F77.0
sg27
F0.0
sg28
F0.013513513513513514
sg29
F0.0
ssS'RIEKER PAULA H'
p114
(dp115
g3
F1328.0
sg4
F214678.0
sg5
F33271.0
sg6
I01
sg7
F0.0
sg8
S'paula.rieker@enron.com'
p116
sg10
F35.0
sg11
F-100000.0
sg12
F2734338.0
sg13
F0.0
sg14
F1258.0
sg15
F0.0
sg16
F82.0
sg17
F1950.0
sg18
F0.03614457831325301
sg19
F0.0
sg20
F700000.0
sg21
F1918887.0
sg22
F48.0
sg23
F0.4268292682926829
sg24
F283649.0
sg25
F249201.0
sg26
F2668.0
sg27
F1099100.0
sg28
F0.058865248226950356
sg29
F1635238.0
ssS'WHALEY DAVID A'
p117
(dp118
g3
F0.0
sg4
F0.0
sg5
F0.0
sg6
I00
sg7
F0.0
sg8
F0.0
sg10
F0.0
sg11
F0.0
sg12
F98718.0
sg13
F0.0
sg14
F0.0
sg15
F0.0
sg16
F0.0
sg17
F0.0
sg18
F0.0
sg19
F0.0
sg20
F0.0
sg21
F98718.0
sg22
F0.0
sg23
F0.0
sg24
F0.0
sg25
F0.0
sg26
F0.0
sg27
F0.0
sg28
F0.0
sg29
F98718.0
ssS'BECK SALLY W'
p119
(dp120
g3
F7315.0
sg4
F0.0
sg5
F37172.0
sg6
I00
sg7
F0.0
sg8
S'sally.beck@enron.com'
p121
sg10
F144.0
sg11
F0.0
sg12
F969068.0
sg13
F0.0
sg14
F2639.0
sg15
F0.0
sg16
F4343.0
sg17
F566.0
sg18
F0.052768284347231714
sg19
F0.0
sg20
F700000.0
sg21
F126027.0
sg22
F386.0
sg23
F0.033156804052498275
sg24
F126027.0
sg25
F231330.0
sg26
F14297.0
sg27
F969068.0
sg28
F0.0454623434551381
sg29
F0.0
ssS'HAUG DAVID L'
p122
(dp123
g3
F573.0
sg4
F0.0
sg5
F475.0
sg6
I00
sg7
F0.0
sg8
S'david.haug@enron.com'
p124
sg10
F4.0
sg11
F0.0
sg12
F475.0
sg13
F0.0
sg14
F471.0
sg15
F0.0
sg16
F19.0
sg17
F0.0
sg18
F0.012216404886561954
sg19
F0.0
sg20
F0.0
sg21
F2217299.0
sg22
F7.0
sg23
F0.21052631578947367
sg24
F2217299.0
sg25
F0.0
sg26
F1063.0
sg27
F475.0
sg28
F0.018581081081081082
sg29
F0.0
ssS'ECHOLS JOHN B'
p125
(dp126
g3
F0.0
sg4
F0.0
sg5
F21530.0
sg6
I00
sg7
F2234774.0
sg8
S'john.echols@enron.com'
p127
sg10
F0.0
sg11
F0.0
sg12
F3293762.0
sg13
F0.0
sg14
F0.0
sg15
F0.0
sg16
F0.0
sg17
F53775.0
sg18
F0.0
sg19
F0.0
sg20
F200000.0
sg21
F1008941.0
sg22
F0.0
sg23
F0.0
sg24
F407503.0
sg25
F182245.0
sg26
F0.0
sg27
F2692324.0
sg28
F0.0
sg29
F601438.0
ssS'MENDELSOHN JOHN'
p128
(dp129
g3
F0.0
sg4
F0.0
sg5
F148.0
sg6
I00
sg7
F0.0
sg8
F0.0
sg10
F0.0
sg11
F-103750.0
sg12
F148.0
sg13
F0.0
sg14
F0.0
sg15
F0.0
sg16
F0.0
sg17
F0.0
sg18
F0.0
sg19
F103750.0
sg20
F0.0
sg21
F0.0
sg22
F0.0
sg23
F0.0
sg24
F0.0
sg25
F0.0
sg26
F0.0
sg27
F148.0
sg28
F0.0
sg29
F0.0
ssS'HICKERSON GARY J'
p130
(dp131
g3
F1320.0
sg4
F0.0
sg5
F98849.0
sg6
I00
sg7
F69223.0
sg8
S'gary.hickerson@enron.com'
p132
sg10
F40.0
sg11
F0.0
sg12
F2081796.0
sg13
F0.0
sg14
F900.0
sg15
F0.0
sg16
F27.0
sg17
F1936.0
sg18
F0.0007575757575757576
sg19
F0.0
sg20
F1700000.0
sg21
F441096.0
sg22
F1.0
sg23
F1.4814814814814814
sg24
F441096.0
sg25
F211788.0
sg26
F2247.0
sg27
F2081796.0
sg28
F0.030438010393466965
sg29
F0.0
ssS'CLINE KENNETH W'
p133
(dp134
g3
F0.0
sg4
F0.0
sg5
F0.0
sg6
I00
sg7
F0.0
sg8
F0.0
sg10
F0.0
sg11
F0.0
sg12
F0.0
sg13
F-472568.0
sg14
F0.0
sg15
F0.0
sg16
F0.0
sg17
F0.0
sg18
F0.0
sg19
F0.0
sg20
F0.0
sg21
F189518.0
sg22
F0.0
sg23
F0.0
sg24
F662086.0
sg25
F0.0
sg26
F0.0
sg27
F0.0
sg28
F0.0
sg29
F0.0
ssS'LEWIS RICHARD'
p135
(dp136
g3
F952.0
sg4
F0.0
sg5
F0.0
sg6
I00
sg7
F0.0
sg8
S'richard.lewis@enron.com'
p137
sg10
F10.0
sg11
F0.0
sg12
F850477.0
sg13
F0.0
sg14
F739.0
sg15
F0.0
sg16
F26.0
sg17
F0.0
sg18
F0.0
sg19
F0.0
sg20
F0.0
sg21
F850477.0
sg22
F0.0
sg23
F0.38461538461538464
sg24
F0.0
sg25
F0.0
sg26
F1717.0
sg27
F0.0
sg28
F0.010224948875255624
sg29
F850477.0
ssS'HAYES ROBERT E'
p138
(dp139
g3
F504.0
sg4
F7961.0
sg5
F0.0
sg6
I00
sg7
F0.0
sg8
S'robert.hayes@enron.com'
p140
sg10
F16.0
sg11
F0.0
sg12
F7961.0
sg13
F0.0
sg14
F50.0
sg15
F0.0
sg16
F12.0
sg17
F0.0
sg18
F0.0
sg19
F0.0
sg20
F0.0
sg21
F151418.0
sg22
F0.0
sg23
F1.3333333333333333
sg24
F151418.0
sg25
F0.0
sg26
F566.0
sg27
F7961.0
sg28
F0.031007751937984496
sg29
F0.0
ssS'KOPPER MICHAEL J'
p141
(dp142
g3
F0.0
sg4
F0.0
sg5
F118134.0
sg6
I01
sg7
F602671.0
sg8
S'michael.kopper@enron.com'
p143
sg10
F0.0
sg11
F0.0
sg12
F2652612.0
sg13
F0.0
sg14
F0.0
sg15
F0.0
sg16
F0.0
sg17
F907502.0
sg18
F0.0
sg19
F0.0
sg20
F800000.0
sg21
F985032.0
sg22
F0.0
sg23
F0.0
sg24
F985032.0
sg25
F224305.0
sg26
F0.0
sg27
F2652612.0
sg28
F0.0
sg29
F0.0
ssS'LEFF DANIEL P'
p144
(dp145
g3
F2822.0
sg4
F0.0
sg5
F0.0
sg6
I00
sg7
F1387399.0
sg8
S'dan.leff@enron.com'
p146
sg10
F67.0
sg11
F0.0
sg12
F2664228.0
sg13
F0.0
sg14
F2672.0
sg15
F0.0
sg16
F63.0
sg17
F3083.0
sg18
F0.004961020552799433
sg19
F0.0
sg20
F1000000.0
sg21
F360528.0
sg22
F14.0
sg23
F1.0634920634920635
sg24
F360528.0
sg25
F273746.0
sg26
F5557.0
sg27
F2664228.0
sg28
F0.028076256499133447
sg29
F0.0
ssS'LAVORATO JOHN J'
p147
(dp148
g3
F7259.0
sg4
F0.0
sg5
F49537.0
sg6
I00
sg7
F2035380.0
sg8
S'john.lavorato@enron.com'
p149
sg10
F528.0
sg11
F0.0
sg12
F14584752.0
sg13
F0.0
sg14
F3962.0
sg15
F0.0
sg16
F2585.0
sg17
F1552.0
sg18
F0.05661936905909905
sg19
F0.0
sg20
F8000000.0
sg21
F5167144.0
sg22
F411.0
sg23
F0.20425531914893616
sg24
F1008149.0
sg25
F339288.0
sg26
F13806.0
sg27
F10425757.0
sg28
F0.09538805363673304
sg29
F4158995.0
ssS'BERBERIAN DAVID'
p150
(dp151
g3
F0.0
sg4
F0.0
sg5
F11892.0
sg6
I00
sg7
F0.0
sg8
S'david.berberian@enron.com'
p152
sg10
F0.0
sg11
F0.0
sg12
F1852870.0
sg13
F0.0
sg14
F0.0
sg15
F0.0
sg16
F0.0
sg17
F0.0
sg18
F0.0
sg19
F0.0
sg20
F0.0
sg21
F2493616.0
sg22
F0.0
sg23
F0.0
sg24
F869220.0
sg25
F216582.0
sg26
F0.0
sg27
F228474.0
sg28
F0.0
sg29
F1624396.0
ssS'DETMERING TIMOTHY J'
p153
(dp154
g3
F0.0
sg4
F875307.0
sg5
F52255.0
sg6
I00
sg7
F415657.0
sg8
S'timothy.detmering@enron.com'
p155
sg10
F0.0
sg11
F-775241.0
sg12
F3232448.0
sg13
F-315068.0
sg14
F0.0
sg15
F0.0
sg16
F0.0
sg17
F1105.0
sg18
F0.0
sg19
F0.0
sg20
F425000.0
sg21
F2027865.0
sg22
F0.0
sg23
F0.0
sg24
F315068.0
sg25
F210500.0
sg26
F0.0
sg27
F1204583.0
sg28
F0.0
sg29
F2027865.0
ssS'WAKEHAM JOHN'
p156
(dp157
g3
F0.0
sg4
F0.0
sg5
F103773.0
sg6
I00
sg7
F0.0
sg8
F0.0
sg10
F0.0
sg11
F0.0
sg12
F213071.0
sg13
F0.0
sg14
F0.0
sg15
F0.0
sg16
F0.0
sg17
F0.0
sg18
F0.0
sg19
F109298.0
sg20
F0.0
sg21
F0.0
sg22
F0.0
sg23
F0.0
sg24
F0.0
sg25
F0.0
sg26
F0.0
sg27
F213071.0
sg28
F0.0
sg29
F0.0
ssS'POWERS WILLIAM'
p158
(dp159
g3
F653.0
sg4
F0.0
sg5
F0.0
sg6
I00
sg7
F0.0
sg8
S'ken.powers@enron.com'
p160
sg10
F0.0
sg11
F-17500.0
sg12
F0.0
sg13
F0.0
sg14
F12.0
sg15
F0.0
sg16
F26.0
sg17
F0.0
sg18
F0.0
sg19
F17500.0
sg20
F0.0
sg21
F0.0
sg22
F0.0
sg23
F0.0
sg24
F0.0
sg25
F0.0
sg26
F691.0
sg27
F0.0
sg28
F0.0
sg29
F0.0
ssS'GOLD JOSEPH'
p161
(dp162
g3
F0.0
sg4
F0.0
sg5
F0.0
sg6
I00
sg7
F304805.0
sg8
S'joe.gold@enron.com'
p163
sg10
F0.0
sg11
F0.0
sg12
F2583488.0
sg13
F0.0
sg14
F0.0
sg15
F0.0
sg16
F0.0
sg17
F819288.0
sg18
F0.0
sg19
F0.0
sg20
F750000.0
sg21
F877611.0
sg22
F0.0
sg23
F0.0
sg24
F441096.0
sg25
F272880.0
sg26
F0.0
sg27
F2146973.0
sg28
F0.0
sg29
F436515.0
ssS'BANNANTINE JAMES M'
p164
(dp165
g3
F566.0
sg4
F0.0
sg5
F56301.0
sg6
I00
sg7
F0.0
sg8
S'james.bannantine@enron.com'
p166
sg10
F39.0
sg11
F-5104.0
sg12
F4962354.0
sg13
F-560222.0
sg14
F465.0
sg15
F0.0
sg16
F29.0
sg17
F864523.0
sg18
F0.0
sg19
F0.0
sg20
F0.0
sg21
F5243487.0
sg22
F0.0
sg23
F1.3448275862068966
sg24
F1757552.0
sg25
F477.0
sg26
F1060.0
sg27
F916197.0
sg28
F0.06554621848739496
sg29
F4046157.0
ssS'DUNCAN JOHN H'
p167
(dp168
g3
F0.0
sg4
F0.0
sg5
F0.0
sg6
I00
sg7
F0.0
sg8
F0.0
sg10
F0.0
sg11
F-25000.0
sg12
F449242.0
sg13
F0.0
sg14
F0.0
sg15
F0.0
sg16
F0.0
sg17
F0.0
sg18
F0.0
sg19
F102492.0
sg20
F0.0
sg21
F371750.0
sg22
F0.0
sg23
F0.0
sg24
F0.0
sg25
F0.0
sg26
F0.0
sg27
F77492.0
sg28
F0.0
sg29
F371750.0
ssS'SHAPIRO RICHARD S'
p169
(dp170
g3
F15149.0
sg4
F0.0
sg5
F137767.0
sg6
I00
sg7
F0.0
sg8
S'richard.shapiro@enron.com'
p171
sg10
F74.0
sg11
F0.0
sg12
F1665385.0
sg13
F0.0
sg14
F4527.0
sg15
F0.0
sg16
F1215.0
sg17
F705.0
sg18
F0.004290712258234867
sg19
F0.0
sg20
F650000.0
sg21
F987001.0
sg22
F65.0
sg23
F0.060905349794238686
sg24
F379164.0
sg25
F269076.0
sg26
F20891.0
sg27
F1057548.0
sg28
F0.00849425568320704
sg29
F607837.0
ssS'SHERRIFF JOHN R'
p172
(dp173
g3
F3187.0
sg4
F0.0
sg5
F0.0
sg6
I00
sg7
F554422.0
sg8
S'john.sherriff@enron.com'
p174
sg10
F28.0
sg11
F0.0
sg12
F6170946.0
sg13
F0.0
sg14
F2103.0
sg15
F0.0
sg16
F92.0
sg17
F1852186.0
sg18
F0.0072168183244430495
sg19
F0.0
sg20
F1500000.0
sg21
F3128982.0
sg22
F23.0
sg23
F0.30434782608695654
sg24
F1293424.0
sg25
F428780.0
sg26
F5382.0
sg27
F4335388.0
sg28
F0.01555352241537054
sg29
F1835558.0
ssS'SHELBY REX'
p175
(dp176
g3
F225.0
sg4
F0.0
sg5
F22884.0
sg6
I01
sg7
F0.0
sg8
S'rex.shelby@enron.com'
p177
sg10
F13.0
sg11
F-4167.0
sg12
F3628281.0
sg13
F0.0
sg14
F91.0
sg15
F0.0
sg16
F39.0
sg17
F1573324.0
sg18
F0.06222222222222222
sg19
F0.0
sg20
F200000.0
sg21
F2493616.0
sg22
F14.0
sg23
F0.3333333333333333
sg24
F869220.0
sg25
F211844.0
sg26
F355.0
sg27
F2003885.0
sg28
F0.10227272727272728
sg29
F1624396.0
ssS'LEMAISTRE CHARLES'
p178
(dp179
g3
F0.0
sg4
F0.0
sg5
F0.0
sg6
I00
sg7
F0.0
sg8
F0.0
sg10
F0.0
sg11
F-25000.0
sg12
F500370.0
sg13
F0.0
sg14
F0.0
sg15
F0.0
sg16
F0.0
sg17
F0.0
sg18
F0.0
sg19
F112492.0
sg20
F0.0
sg21
F412878.0
sg22
F0.0
sg23
F0.0
sg24
F0.0
sg25
F0.0
sg26
F0.0
sg27
F87492.0
sg28
F0.0
sg29
F412878.0
ssS'DEFFNER JOSEPH M'
p180
(dp181
g3
F714.0
sg4
F0.0
sg5
F41626.0
sg6
I00
sg7
F335349.0
sg8
S'joseph.deffner@enron.com'
p182
sg10
F115.0
sg11
F0.0
sg12
F1226027.0
sg13
F0.0
sg14
F552.0
sg15
F0.0
sg16
F74.0
sg17
F25553.0
sg18
F0.0056022408963585435
sg19
F0.0
sg20
F600000.0
sg21
F159211.0
sg22
F4.0
sg23
F1.554054054054054
sg24
F141833.0
sg25
F206121.0
sg26
F1340.0
sg27
F1208649.0
sg28
F0.15101522842639595
sg29
F17378.0
ssS'KISHKILL JOSEPH G'
p183
(dp184
g3
F0.0
sg4
F0.0
sg5
F116335.0
sg6
I00
sg7
F0.0
sg8
S'joe.kishkill@enron.com'
p185
sg10
F0.0
sg11
F-51042.0
sg12
F704896.0
sg13
F0.0
sg14
F0.0
sg15
F0.0
sg16
F0.0
sg17
F465357.0
sg18
F0.0
sg19
F0.0
sg20
F0.0
sg21
F1034346.0
sg22
F0.0
sg23
F0.0
sg24
F1034346.0
sg25
F174246.0
sg26
F0.0
sg27
F704896.0
sg28
F0.0
sg29
F0.0
ssS'WHALLEY LAWRENCE G'
p186
(dp187
g3
F6019.0
sg4
F0.0
sg5
F57838.0
sg6
I00
sg7
F808346.0
sg8
S'greg.whalley@enron.com'
p188
sg10
F186.0
sg11
F0.0
sg12
F7960534.0
sg13
F0.0
sg14
F3920.0
sg15
F0.0
sg16
F556.0
sg17
F301026.0
sg18
F0.003987373317826882
sg19
F0.0
sg20
F3000000.0
sg21
F6079137.0
sg22
F24.0
sg23
F0.3345323741007194
sg24
F2796177.0
sg25
F510364.0
sg26
F10495.0
sg27
F4677574.0
sg28
F0.03193916349809886
sg29
F3282960.0
ssS'MCCARTY DANNY J'
p189
(dp190
g3
F1433.0
sg4
F0.0
sg5
F0.0
sg6
I00
sg7
F0.0
sg8
S'danny.mccarty@enron.com'
p191
sg10
F25.0
sg11
F0.0
sg12
F664375.0
sg13
F0.0
sg14
F508.0
sg15
F0.0
sg16
F215.0
sg17
F0.0
sg18
F0.0013956734124214933
sg19
F0.0
sg20
F0.0
sg21
F758931.0
sg22
F2.0
sg23
F0.11627906976744186
sg24
F94556.0
sg25
F0.0
sg26
F2156.0
sg27
F0.0
sg28
F0.016383495145631068
sg29
F664375.0
ssS'MCCONNELL MICHAEL S'
p192
(dp193
g3
F3329.0
sg4
F0.0
sg5
F81364.0
sg6
I00
sg7
F554422.0
sg8
S'mike.mcconnell@enron.com'
p194
sg10
F92.0
sg11
F0.0
sg12
F3724374.0
sg13
F0.0
sg14
F2189.0
sg15
F0.0
sg16
F2742.0
sg17
F540.0
sg18
F0.058275758486031844
sg19
F0.0
sg20
F1100000.0
sg21
F3101279.0
sg22
F194.0
sg23
F0.03355215171407731
sg24
F1478269.0
sg25
F365038.0
sg26
F8260.0
sg27
F2101364.0
sg28
F0.047109207708779445
sg29
F1623010.0
ssS'DELAINEY DAVID W'
p195
(dp196
g3
F3093.0
sg4
F0.0
sg5
F86174.0
sg6
I01
sg7
F1294981.0
sg8
S'david.delainey@enron.com'
p197
sg10
F66.0
sg11
F0.0
sg12
F7039092.0
sg13
F0.0
sg14
F2097.0
sg15
F0.0
sg16
F3069.0
sg17
F1661.0
sg18
F0.19689621726479145
sg19
F0.0
sg20
F3000000.0
sg21
F3614261.0
sg22
F609.0
sg23
F0.021505376344086023
sg24
F1323148.0
sg25
F365163.0
sg26
F8259.0
sg27
F4747979.0
sg28
F0.10954235637779941
sg29
F2291113.0
ssS'SULLIVAN-SHAKLOVITZ COLLEEN'
p198
(dp199
g3
F0.0
sg4
F181993.0
sg5
F0.0
sg6
I00
sg7
F554422.0
sg8
F0.0
sg10
F0.0
sg11
F0.0
sg12
F2361731.0
sg13
F0.0
sg14
F0.0
sg15
F0.0
sg16
F0.0
sg17
F162.0
sg18
F0.0
sg19
F0.0
sg20
F100000.0
sg21
F1362375.0
sg22
F0.0
sg23
F0.0
sg24
F0.0
sg25
F162779.0
sg26
F0.0
sg27
F999356.0
sg28
F0.0
sg29
F1362375.0
ssS'WROBEL BRUCE'
p200
(dp201
g3
F0.0
sg4
F0.0
sg5
F0.0
sg6
I00
sg7
F0.0
sg8
F0.0
sg10
F0.0
sg11
F0.0
sg12
F139130.0
sg13
F0.0
sg14
F0.0
sg15
F0.0
sg16
F0.0
sg17
F0.0
sg18
F0.0
sg19
F0.0
sg20
F0.0
sg21
F139130.0
sg22
F0.0
sg23
F0.0
sg24
F0.0
sg25
F0.0
sg26
F0.0
sg27
F0.0
sg28
F0.0
sg29
F139130.0
ssS'LINDHOLM TOD A'
p202
(dp203
g3
F0.0
sg4
F204075.0
sg5
F57727.0
sg6
I00
sg7
F175000.0
sg8
S'tod.lindholm@enron.com'
p204
sg10
F0.0
sg11
F0.0
sg12
F3425250.0
sg13
F0.0
sg14
F0.0
sg15
F0.0
sg16
F0.0
sg17
F2630.0
sg18
F0.0
sg19
F0.0
sg20
F200000.0
sg21
F3064208.0
sg22
F0.0
sg23
F0.0
sg24
F514847.0
sg25
F236457.0
sg26
F0.0
sg27
F875889.0
sg28
F0.0
sg29
F2549361.0
ssS'MEYER JEROME J'
p205
(dp206
g3
F0.0
sg4
F0.0
sg5
F2151.0
sg6
I00
sg7
F0.0
sg8
F0.0
sg10
F0.0
sg11
F-38346.0
sg12
F2151.0
sg13
F0.0
sg14
F0.0
sg15
F0.0
sg16
F0.0
sg17
F0.0
sg18
F0.0
sg19
F38346.0
sg20
F0.0
sg21
F0.0
sg22
F0.0
sg23
F0.0
sg24
F0.0
sg25
F0.0
sg26
F0.0
sg27
F2151.0
sg28
F0.0
sg29
F0.0
ssS'LAY KENNETH L'
p207
(dp208
g3
F4273.0
sg4
F202911.0
sg5
F99832.0
sg6
I01
sg7
F3600000.0
sg8
S'kenneth.lay@enron.com'
p209
sg10
F123.0
sg11
F-300000.0
sg12
F137908177.0
sg13
F0.0
sg14
F2411.0
sg15
F81525000.0
sg16
F36.0
sg17
F10359729.0
sg18
F0.003744441844137608
sg19
F0.0
sg20
F7000000.0
sg21
F49110078.0
sg22
F16.0
sg23
F3.4166666666666665
sg24
F14761694.0
sg25
F1072321.0
sg26
F6720.0
sg27
F103559793.0
sg28
F0.03225806451612903
sg29
F34348384.0
ssS'BUTTS ROBERT H'
p210
(dp211
g3
F0.0
sg4
F0.0
sg5
F9410.0
sg6
I00
sg7
F175000.0
sg8
S'bob.butts@enron.com'
p212
sg10
F0.0
sg11
F-75000.0
sg12
F1271582.0
sg13
F0.0
sg14
F0.0
sg15
F0.0
sg16
F0.0
sg17
F150656.0
sg18
F0.0
sg19
F0.0
sg20
F750000.0
sg21
F417619.0
sg22
F0.0
sg23
F0.0
sg24
F417619.0
sg25
F261516.0
sg26
F0.0
sg27
F1271582.0
sg28
F0.0
sg29
F0.0
ssS'OLSON CINDY K'
p213
(dp214
g3
F1184.0
sg4
F77716.0
sg5
F63791.0
sg6
I00
sg7
F100000.0
sg8
S'cindy.olson@enron.com'
p215
sg10
F20.0
sg11
F0.0
sg12
F2958591.0
sg13
F0.0
sg14
F856.0
sg15
F0.0
sg16
F52.0
sg17
F972.0
sg18
F0.01266891891891892
sg19
F0.0
sg20
F750000.0
sg21
F2606763.0
sg22
F15.0
sg23
F0.38461538461538464
sg24
F969729.0
sg25
F329078.0
sg26
F2092.0
sg27
F1321557.0
sg28
F0.02831715210355987
sg29
F1637034.0
ssS'MCDONALD REBECCA'
p216
(dp217
g3
F894.0
sg4
F0.0
sg5
F0.0
sg6
I00
sg7
F0.0
sg8
S'rebecca.mcdonald@enron.com'
p218
sg10
F54.0
sg11
F0.0
sg12
F757301.0
sg13
F0.0
sg14
F720.0
sg15
F0.0
sg16
F13.0
sg17
F0.0
sg18
F0.0011185682326621924
sg19
F0.0
sg20
F0.0
sg21
F1691366.0
sg22
F1.0
sg23
F4.153846153846154
sg24
F934065.0
sg25
F0.0
sg26
F1627.0
sg27
F0.0
sg28
F0.06063947078280044
sg29
F757301.0
ssS'CUMBERLAND MICHAEL S'
p219
(dp220
g3
F0.0
sg4
F0.0
sg5
F22344.0
sg6
I00
sg7
F275000.0
sg8
F0.0
sg10
F0.0
sg11
F0.0
sg12
F807956.0
sg13
F0.0
sg14
F0.0
sg15
F0.0
sg16
F0.0
sg17
F713.0
sg18
F0.0
sg19
F0.0
sg20
F325000.0
sg21
F207940.0
sg22
F0.0
sg23
F0.0
sg24
F207940.0
sg25
F184899.0
sg26
F0.0
sg27
F807956.0
sg28
F0.0
sg29
F0.0
ssS'GAHN ROBERT S'
p221
(dp222
g3
F0.0
sg4
F73122.0
sg5
F50080.0
sg6
I00
sg7
F0.0
sg8
F0.0
sg10
F0.0
sg11
F-1042.0
sg12
F983822.0
sg13
F0.0
sg14
F0.0
sg15
F0.0
sg16
F0.0
sg17
F76547.0
sg18
F0.0
sg19
F0.0
sg20
F509870.0
sg21
F318607.0
sg22
F0.0
sg23
F0.0
sg24
F235370.0
sg25
F192008.0
sg26
F0.0
sg27
F900585.0
sg28
F0.0
sg29
F83237.0
ssS'MCCLELLAN GEORGE'
p223
(dp224
g3
F1744.0
sg4
F0.0
sg5
F228763.0
sg6
I00
sg7
F0.0
sg8
S'george.mcclellan@enron.com'
p225
sg10
F52.0
sg11
F-125000.0
sg12
F1825528.0
sg13
F0.0
sg14
F1469.0
sg15
F0.0
sg16
F49.0
sg17
F51587.0
sg18
F0.0
sg19
F0.0
sg20
F900000.0
sg21
F947861.0
sg22
F0.0
sg23
F1.0612244897959184
sg24
F441096.0
sg25
F263413.0
sg26
F3262.0
sg27
F1318763.0
sg28
F0.029001673173452314
sg29
F506765.0
ssS'HERMANN ROBERT J'
p226
(dp227
g3
F0.0
sg4
F0.0
sg5
F48357.0
sg6
I00
sg7
F150000.0
sg8
S'robert.hermann@enron.com'
p228
sg10
F0.0
sg11
F-280000.0
sg12
F1484961.0
sg13
F0.0
sg14
F0.0
sg15
F0.0
sg16
F0.0
sg17
F416441.0
sg18
F0.0
sg19
F0.0
sg20
F700000.0
sg21
F668132.0
sg22
F0.0
sg23
F0.0
sg24
F480632.0
sg25
F262663.0
sg26
F0.0
sg27
F1297461.0
sg28
F0.0
sg29
F187500.0
ssS'SCRIMSHAW MATTHEW'
p229
(dp230
g3
F0.0
sg4
F0.0
sg5
F0.0
sg6
I00
sg7
F0.0
sg8
S'matthew.scrimshaw@enron.com'
p231
sg10
F0.0
sg11
F0.0
sg12
F759557.0
sg13
F0.0
sg14
F0.0
sg15
F0.0
sg16
F0.0
sg17
F0.0
sg18
F0.0
sg19
F0.0
sg20
F0.0
sg21
F759557.0
sg22
F0.0
sg23
F0.0
sg24
F0.0
sg25
F0.0
sg26
F0.0
sg27
F0.0
sg28
F0.0
sg29
F759557.0
ssS'GATHMANN WILLIAM D'
p232
(dp233
g3
F0.0
sg4
F0.0
sg5
F0.0
sg6
I00
sg7
F0.0
sg8
F0.0
sg10
F0.0
sg11
F0.0
sg12
F1753766.0
sg13
F-72419.0
sg14
F0.0
sg15
F0.0
sg16
F0.0
sg17
F0.0
sg18
F0.0
sg19
F0.0
sg20
F0.0
sg21
F1945360.0
sg22
F0.0
sg23
F0.0
sg24
F264013.0
sg25
F0.0
sg26
F0.0
sg27
F0.0
sg28
F0.0
sg29
F1753766.0
ssS'HAEDICKE MARK E'
p234
(dp235
g3
F4009.0
sg4
F2157527.0
sg5
F76169.0
sg6
I00
sg7
F983346.0
sg8
S'mark.haedicke@enron.com'
p236
sg10
F180.0
sg11
F-934484.0
sg12
F4467815.0
sg13
F-329825.0
sg14
F1847.0
sg15
F0.0
sg16
F1941.0
sg17
F52382.0
sg18
F0.015215764529807932
sg19
F0.0
sg20
F1150000.0
sg21
F803094.0
sg22
F61.0
sg23
F0.09273570324574962
sg24
F524169.0
sg25
F374125.0
sg26
F7797.0
sg27
F3859065.0
sg28
F0.04050420168067227
sg29
F608750.0
ssS'BOWEN JR RAYMOND M'
p237
(dp238
g3
F1858.0
sg4
F0.0
sg5
F65907.0
sg6
I01
sg7
F974293.0
sg8
S'raymond.bowen@enron.com'
p239
sg10
F140.0
sg11
F-833.0
sg12
F2669589.0
sg13
F0.0
sg14
F1593.0
sg15
F0.0
sg16
F27.0
sg17
F1621.0
sg18
F0.008073196986006458
sg19
F0.0
sg20
F1350000.0
sg21
F252055.0
sg22
F15.0
sg23
F5.185185185185185
sg24
F252055.0
sg25
F278601.0
sg26
F3478.0
sg27
F2669589.0
sg28
F0.08222811671087533
sg29
F0.0
ssS'GILLIS JOHN'
p240
(dp241
g3
F0.0
sg4
F0.0
sg5
F0.0
sg6
I00
sg7
F0.0
sg8
F0.0
sg10
F0.0
sg11
F0.0
sg12
F9803.0
sg13
F0.0
sg14
F0.0
sg15
F0.0
sg16
F0.0
sg17
F0.0
sg18
F0.0
sg19
F0.0
sg20
F0.0
sg21
F85641.0
sg22
F0.0
sg23
F0.0
sg24
F75838.0
sg25
F0.0
sg26
F0.0
sg27
F0.0
sg28
F0.0
sg29
F9803.0
ssS'FITZGERALD JAY L'
p242
(dp243
g3
F936.0
sg4
F0.0
sg5
F23870.0
sg6
I00
sg7
F556416.0
sg8
S'jay.fitzgerald@enron.com'
p244
sg10
F1.0
sg11
F0.0
sg12
F2079318.0
sg13
F0.0
sg14
F723.0
sg15
F0.0
sg16
F16.0
sg17
F285414.0
sg18
F0.008547008547008548
sg19
F0.0
sg20
F350000.0
sg21
F1621236.0
sg22
F8.0
sg23
F0.0625
sg24
F956775.0
sg25
F199157.0
sg26
F1675.0
sg27
F1414857.0
sg28
F0.009453781512605041
sg29
F664461.0
ssS'MORAN MICHAEL P'
p245
(dp246
g3
F672.0
sg4
F0.0
sg5
F0.0
sg6
I00
sg7
F0.0
sg8
S'michael.moran@enron.com'
p247
sg10
F0.0
sg11
F0.0
sg12
F59539.0
sg13
F0.0
sg14
F127.0
sg15
F0.0
sg16
F19.0
sg17
F0.0
sg18
F0.0
sg19
F0.0
sg20
F0.0
sg21
F221141.0
sg22
F0.0
sg23
F0.0
sg24
F161602.0
sg25
F0.0
sg26
F818.0
sg27
F0.0
sg28
F0.0
sg29
F59539.0
ssS'REDMOND BRIAN L'
p248
(dp249
g3
F1671.0
sg4
F0.0
sg5
F14689.0
sg6
I00
sg7
F0.0
sg8
S'brian.redmond@enron.com'
p250
sg10
F204.0
sg11
F0.0
sg12
F7620568.0
sg13
F0.0
sg14
F1063.0
sg15
F0.0
sg16
F221.0
sg17
F0.0
sg18
F0.029323758228605626
sg19
F0.0
sg20
F0.0
sg21
F7890324.0
sg22
F49.0
sg23
F0.9230769230769231
sg24
F381285.0
sg25
F96840.0
sg26
F2955.0
sg27
F111529.0
sg28
F0.13372093023255813
sg29
F7509039.0
ssS'BAZELIDES PHILIP J'
p251
(dp252
g3
F0.0
sg4
F684694.0
sg5
F0.0
sg6
I00
sg7
F93750.0
sg8
F0.0
sg10
F0.0
sg11
F0.0
sg12
F2459777.0
sg13
F0.0
sg14
F0.0
sg15
F0.0
sg16
F0.0
sg17
F874.0
sg18
F0.0
sg19
F0.0
sg20
F0.0
sg21
F1599641.0
sg22
F0.0
sg23
F0.0
sg24
F0.0
sg25
F80818.0
sg26
F0.0
sg27
F860136.0
sg28
F0.0
sg29
F1599641.0
ssS'BELDEN TIMOTHY N'
p253
(dp254
g3
F7991.0
sg4
F2144013.0
sg5
F17355.0
sg6
I01
sg7
F0.0
sg8
S'tim.belden@enron.com'
p255
sg10
F228.0
sg11
F-2334434.0
sg12
F6454766.0
sg13
F0.0
sg14
F5521.0
sg15
F0.0
sg16
F484.0
sg17
F210698.0
sg18
F0.013515204605180828
sg19
F0.0
sg20
F5249999.0
sg21
F1110705.0
sg22
F108.0
sg23
F0.47107438016528924
sg24
F157569.0
sg25
F213999.0
sg26
F13996.0
sg27
F5501630.0
sg28
F0.03964601769911504
sg29
F953136.0
ssS'DURAN WILLIAM D'
p256
(dp257
g3
F904.0
sg4
F0.0
sg5
F25785.0
sg6
I00
sg7
F1105218.0
sg8
S'w.duran@enron.com'
p258
sg10
F106.0
sg11
F0.0
sg12
F3545132.0
sg13
F0.0
sg14
F599.0
sg15
F0.0
sg16
F12.0
sg17
F1568.0
sg18
F0.00331858407079646
sg19
F0.0
sg20
F750000.0
sg21
F1640910.0
sg22
F3.0
sg23
F8.833333333333334
sg24
F189041.0
sg25
F210692.0
sg26
F1515.0
sg27
F2093263.0
sg28
F0.11899563318777293
sg29
F1451869.0
ssS'THORN TERENCE H'
p259
(dp260
g3
F266.0
sg4
F16586.0
sg5
F46145.0
sg6
I00
sg7
F200000.0
sg8
S'terence.thorn@enron.com'
p261
sg10
F0.0
sg11
F0.0
sg12
F5363929.0
sg13
F0.0
sg14
F73.0
sg15
F0.0
sg16
F41.0
sg17
F426629.0
sg18
F0.0
sg19
F0.0
sg20
F0.0
sg21
F4817796.0
sg22
F0.0
sg23
F0.0
sg24
F365320.0
sg25
F222093.0
sg26
F380.0
sg27
F911453.0
sg28
F0.0
sg29
F4452476.0
ssS'FASTOW ANDREW S'
p262
(dp263
g3
F0.0
sg4
F0.0
sg5
F55921.0
sg6
I01
sg7
F1736055.0
sg8
S'andrew.fastow@enron.com'
p264
sg10
F0.0
sg11
F-1386055.0
sg12
F2424083.0
sg13
F0.0
sg14
F0.0
sg15
F0.0
sg16
F0.0
sg17
F277464.0
sg18
F0.0
sg19
F0.0
sg20
F1300000.0
sg21
F1794412.0
sg22
F0.0
sg23
F0.0
sg24
F1794412.0
sg25
F440698.0
sg26
F0.0
sg27
F2424083.0
sg28
F0.0
sg29
F0.0
ssS'FOY JOE'
p265
(dp266
g3
F57.0
sg4
F181755.0
sg5
F0.0
sg6
I00
sg7
F0.0
sg8
S'tracy.foy@enron.com'
p267
sg10
F0.0
sg11
F0.0
sg12
F525189.0
sg13
F0.0
sg14
F2.0
sg15
F0.0
sg16
F13.0
sg17
F0.0
sg18
F0.0
sg19
F0.0
sg20
F0.0
sg21
F343434.0
sg22
F0.0
sg23
F0.0
sg24
F0.0
sg25
F0.0
sg26
F72.0
sg27
F181755.0
sg28
F0.0
sg29
F343434.0
ssS'CALGER CHRISTOPHER F'
p268
(dp269
g3
F2598.0
sg4
F0.0
sg5
F35818.0
sg6
I01
sg7
F375304.0
sg8
S'christopher.calger@enron.com'
p270
sg10
F199.0
sg11
F-262500.0
sg12
F1639297.0
sg13
F0.0
sg14
F2188.0
sg15
F0.0
sg16
F144.0
sg17
F486.0
sg18
F0.00962278675904542
sg19
F0.0
sg20
F1250000.0
sg21
F126027.0
sg22
F25.0
sg23
F1.3819444444444444
sg24
F126027.0
sg25
F240189.0
sg26
F4930.0
sg27
F1639297.0
sg28
F0.08169219547775347
sg29
F0.0
ssS'RICE KENNETH D'
p271
(dp272
g3
F905.0
sg4
F0.0
sg5
F46950.0
sg6
I01
sg7
F1617011.0
sg8
S'ken.rice@enron.com'
p273
sg10
F42.0
sg11
F-3504386.0
sg12
F20299225.0
sg13
F0.0
sg14
F864.0
sg15
F0.0
sg16
F18.0
sg17
F174839.0
sg18
F0.004419889502762431
sg19
F0.0
sg20
F1750000.0
sg21
F22542539.0
sg22
F4.0
sg23
F2.3333333333333335
sg24
F2748364.0
sg25
F420636.0
sg26
F1787.0
sg27
F505050.0
sg28
F0.04983748645720477
sg29
F19794175.0
ssS'KAMINSKI WINCENTY J'
p274
(dp275
g3
F4607.0
sg4
F0.0
sg5
F83585.0
sg6
I00
sg7
F323466.0
sg8
S'vince.kaminski@enron.com'
p276
sg10
F41.0
sg11
F0.0
sg12
F1936831.0
sg13
F0.0
sg14
F583.0
sg15
F0.0
sg16
F14368.0
sg17
F4669.0
sg18
F0.03711742999782939
sg19
F0.0
sg20
F400000.0
sg21
F976037.0
sg22
F171.0
sg23
F0.002853563474387528
sg24
F126027.0
sg25
F275101.0
sg26
F19558.0
sg27
F1086821.0
sg28
F0.011172595520421607
sg29
F850010.0
ssS'COX DAVID'
p277
(dp278
g3
F102.0
sg4
F0.0
sg5
F27861.0
sg6
I00
sg7
F0.0
sg8
S'chip.cox@enron.com'
p279
sg10
F0.0
sg11
F-41250.0
sg12
F1218944.0
sg13
F0.0
sg14
F71.0
sg15
F0.0
sg16
F33.0
sg17
F494.0
sg18
F0.0392156862745098
sg19
F0.0
sg20
F800000.0
sg21
F495633.0
sg22
F4.0
sg23
F0.0
sg24
F378082.0
sg25
F314288.0
sg26
F206.0
sg27
F1101393.0
sg28
F0.02962962962962963
sg29
F117551.0
ssS'OVERDYKE JR JERE C'
p280
(dp281
g3
F0.0
sg4
F0.0
sg5
F18834.0
sg6
I00
sg7
F135836.0
sg8
S'jere.overdyke@enron.com'
p282
sg10
F0.0
sg11
F0.0
sg12
F5516365.0
sg13
F0.0
sg14
F0.0
sg15
F0.0
sg16
F0.0
sg17
F176.0
sg18
F0.0
sg19
F0.0
sg20
F0.0
sg21
F7307594.0
sg22
F0.0
sg23
F0.0
sg24
F2041016.0
sg25
F94941.0
sg26
F0.0
sg27
F249787.0
sg28
F0.0
sg29
F5266578.0
ssS'PEREIRA PAULO V. FERRAZ'
p283
(dp284
g3
F0.0
sg4
F0.0
sg5
F27942.0
sg6
I00
sg7
F0.0
sg8
F0.0
sg10
F0.0
sg11
F-101250.0
sg12
F27942.0
sg13
F0.0
sg14
F0.0
sg15
F0.0
sg16
F0.0
sg17
F0.0
sg18
F0.0
sg19
F101250.0
sg20
F0.0
sg21
F0.0
sg22
F0.0
sg23
F0.0
sg24
F0.0
sg25
F0.0
sg26
F0.0
sg27
F27942.0
sg28
F0.0
sg29
F0.0
ssS'STABLER FRANK'
p285
(dp286
g3
F0.0
sg4
F0.0
sg5
F16514.0
sg6
I00
sg7
F0.0
sg8
S'frank.stabler@enron.com'
p287
sg10
F0.0
sg11
F0.0
sg12
F1112087.0
sg13
F0.0
sg14
F0.0
sg15
F0.0
sg16
F0.0
sg17
F356071.0
sg18
F0.0
sg19
F0.0
sg20
F500000.0
sg21
F511734.0
sg22
F0.0
sg23
F0.0
sg24
F511734.0
sg25
F239502.0
sg26
F0.0
sg27
F1112087.0
sg28
F0.0
sg29
F0.0
ssS'SKILLING JEFFREY K'
p288
(dp289
g3
F3627.0
sg4
F0.0
sg5
F29336.0
sg6
I01
sg7
F1920000.0
sg8
S'jeff.skilling@enron.com'
p290
sg10
F88.0
sg11
F0.0
sg12
F27932716.0
sg13
F0.0
sg14
F2042.0
sg15
F0.0
sg16
F108.0
sg17
F22122.0
sg18
F0.008271298593879239
sg19
F0.0
sg20
F5600000.0
sg21
F26093672.0
sg22
F30.0
sg23
F0.8148148148148148
sg24
F6843672.0
sg25
F1111258.0
sg26
F5777.0
sg27
F8682716.0
sg28
F0.03159303882195449
sg29
F19250000.0
ssS'BLAKE JR. NORMAN P'
p291
(dp292
g3
F0.0
sg4
F0.0
sg5
F1279.0
sg6
I00
sg7
F0.0
sg8
F0.0
sg10
F0.0
sg11
F-113784.0
sg12
F1279.0
sg13
F0.0
sg14
F0.0
sg15
F0.0
sg16
F0.0
sg17
F0.0
sg18
F0.0
sg19
F113784.0
sg20
F0.0
sg21
F0.0
sg22
F0.0
sg23
F0.0
sg24
F0.0
sg25
F0.0
sg26
F0.0
sg27
F1279.0
sg28
F0.0
sg29
F0.0
ssS'SHERRICK JEFFREY B'
p293
(dp294
g3
F613.0
sg4
F0.0
sg5
F0.0
sg6
I00
sg7
F0.0
sg8
S'jeffrey.sherrick@enron.com'
p295
sg10
F39.0
sg11
F0.0
sg12
F1426469.0
sg13
F0.0
sg14
F583.0
sg15
F0.0
sg16
F25.0
sg17
F0.0
sg18
F0.02936378466557912
sg19
F0.0
sg20
F0.0
sg21
F1832468.0
sg22
F18.0
sg23
F1.56
sg24
F405999.0
sg25
F0.0
sg26
F1221.0
sg27
F0.0
sg28
F0.08934169278996865
sg29
F1426469.0
ssS'PRENTICE JAMES'
p296
(dp297
g3
F0.0
sg4
F564348.0
sg5
F0.0
sg6
I00
sg7
F0.0
sg8
S'james.prentice@enron.com'
p298
sg10
F0.0
sg11
F0.0
sg12
F1450579.0
sg13
F0.0
sg14
F0.0
sg15
F0.0
sg16
F0.0
sg17
F0.0
sg18
F0.0
sg19
F0.0
sg20
F0.0
sg21
F1095040.0
sg22
F0.0
sg23
F0.0
sg24
F208809.0
sg25
F0.0
sg26
F0.0
sg27
F564348.0
sg28
F0.0
sg29
F886231.0
ssS'GRAY RODNEY'
p299
(dp300
g3
F0.0
sg4
F93585.0
sg5
F0.0
sg6
I00
sg7
F365625.0
sg8
F0.0
sg10
F0.0
sg11
F0.0
sg12
F1146658.0
sg13
F0.0
sg14
F0.0
sg15
F0.0
sg16
F0.0
sg17
F680833.0
sg18
F0.0
sg19
F0.0
sg20
F0.0
sg21
F0.0
sg22
F0.0
sg23
F0.0
sg24
F0.0
sg25
F6615.0
sg26
F0.0
sg27
F1146658.0
sg28
F0.0
sg29
F0.0
ssS'PICKERING MARK R'
p301
(dp302
g3
F898.0
sg4
F0.0
sg5
F31653.0
sg6
I00
sg7
F0.0
sg8
S'mark.pickering@enron.com'
p303
sg10
F7.0
sg11
F0.0
sg12
F1415488.0
sg13
F0.0
sg14
F728.0
sg15
F400000.0
sg16
F67.0
sg17
F0.0
sg18
F0.0
sg19
F0.0
sg20
F300000.0
sg21
F28798.0
sg22
F0.0
sg23
F0.1044776119402985
sg24
F0.0
sg25
F655037.0
sg26
F1693.0
sg27
F1386690.0
sg28
F0.007253886010362694
sg29
F28798.0
ssS'NOLES JAMES L'
p304
(dp305
g3
F0.0
sg4
F774401.0
sg5
F0.0
sg6
I00
sg7
F0.0
sg8
F0.0
sg10
F0.0
sg11
F0.0
sg12
F774401.0
sg13
F-94556.0
sg14
F0.0
sg15
F0.0
sg16
F0.0
sg17
F0.0
sg18
F0.0
sg19
F0.0
sg20
F0.0
sg21
F368705.0
sg22
F0.0
sg23
F0.0
sg24
F463261.0
sg25
F0.0
sg26
F0.0
sg27
F774401.0
sg28
F0.0
sg29
F0.0
ssS'KEAN STEVEN J'
p306
(dp307
g3
F12754.0
sg4
F0.0
sg5
F41953.0
sg6
I00
sg7
F300000.0
sg8
S'steven.kean@enron.com'
p308
sg10
F140.0
sg11
F0.0
sg12
F3769570.0
sg13
F0.0
sg14
F3639.0
sg15
F0.0
sg16
F6759.0
sg17
F1231.0
sg18
F0.03034342167163243
sg19
F0.0
sg20
F1000000.0
sg21
F6153642.0
sg22
F387.0
sg23
F0.020713123243083296
sg24
F4131594.0
sg25
F404338.0
sg26
F23152.0
sg27
F1747522.0
sg28
F0.02700763593501768
sg29
F2022048.0
ssS'FOWLER PEGGY'
p309
(dp310
g3
F517.0
sg4
F0.0
sg5
F0.0
sg6
I00
sg7
F0.0
sg8
S'kulvinder.fowler@enron.com'
p311
sg10
F0.0
sg11
F0.0
sg12
F1324578.0
sg13
F0.0
sg14
F10.0
sg15
F0.0
sg16
F36.0
sg17
F0.0
sg18
F0.0
sg19
F0.0
sg20
F0.0
sg21
F1884748.0
sg22
F0.0
sg23
F0.0
sg24
F560170.0
sg25
F0.0
sg26
F563.0
sg27
F0.0
sg28
F0.0
sg29
F1324578.0
ssS'WASAFF GEORGE'
p312
(dp313
g3
F400.0
sg4
F831299.0
sg5
F0.0
sg6
I00
sg7
F200000.0
sg8
S'george.wasaff@enron.com'
p314
sg10
F22.0
sg11
F-583325.0
sg12
F2702655.0
sg13
F0.0
sg14
F337.0
sg15
F0.0
sg16
F30.0
sg17
F1425.0
sg18
F0.0175
sg19
F0.0
sg20
F325000.0
sg21
F2056427.0
sg22
F7.0
sg23
F0.7333333333333333
sg24
F388167.0
sg25
F259996.0
sg26
F767.0
sg27
F1034395.0
sg28
F0.06744186046511629
sg29
F1668260.0
ssS'WHITE JR THOMAS E'
p315
(dp316
g3
F0.0
sg4
F0.0
sg5
F81353.0
sg6
I00
sg7
F0.0
sg8
S'thomas.white@enron.com'
p317
sg10
F0.0
sg11
F0.0
sg12
F3231408.0
sg13
F0.0
sg14
F0.0
sg15
F0.0
sg16
F0.0
sg17
F1085463.0
sg18
F0.0
sg19
F0.0
sg20
F450000.0
sg21
F15144123.0
sg22
F0.0
sg23
F0.0
sg24
F13847074.0
sg25
F317543.0
sg26
F0.0
sg27
F1934359.0
sg28
F0.0
sg29
F1297049.0
ssS'CHRISTODOULOU DIOMEDES'
p318
(dp319
g3
F0.0
sg4
F0.0
sg5
F0.0
sg6
I00
sg7
F0.0
sg8
S'diomedes.christodoulou@enron.com'
p320
sg10
F0.0
sg11
F0.0
sg12
F5127155.0
sg13
F0.0
sg14
F0.0
sg15
F0.0
sg16
F0.0
sg17
F0.0
sg18
F0.0
sg19
F0.0
sg20
F0.0
sg21
F6077885.0
sg22
F0.0
sg23
F0.0
sg24
F950730.0
sg25
F0.0
sg26
F0.0
sg27
F0.0
sg28
F0.0
sg29
F5127155.0
ssS'ALLEN PHILLIP K'
p321
(dp322
g3
F2902.0
sg4
F2869717.0
sg5
F13868.0
sg6
I00
sg7
F304805.0
sg8
S'phillip.allen@enron.com'
p323
sg10
F47.0
sg11
F-3081055.0
sg12
F6213983.0
sg13
F-126027.0
sg14
F1407.0
sg15
F0.0
sg16
F2195.0
sg17
F152.0
sg18
F0.022398345968297727
sg19
F0.0
sg20
F4175000.0
sg21
F1729541.0
sg22
F65.0
sg23
F0.0214123006833713
sg24
F126027.0
sg25
F201955.0
sg26
F6504.0
sg27
F4484442.0
sg28
F0.0219737100255052
sg29
F1729541.0
ssS'SHARP VICTORIA T'
p324
(dp325
g3
F3136.0
sg4
F187469.0
sg5
F116337.0
sg6
I00
sg7
F422158.0
sg8
S'vicki.sharp@enron.com'
p326
sg10
F24.0
sg11
F0.0
sg12
F1857584.0
sg13
F0.0
sg14
F2477.0
sg15
F0.0
sg16
F136.0
sg17
F2401.0
sg18
F0.001913265306122449
sg19
F0.0
sg20
F600000.0
sg21
F494136.0
sg22
F6.0
sg23
F0.17647058823529413
sg24
F213063.0
sg25
F248146.0
sg26
F5749.0
sg27
F1576511.0
sg28
F0.009168704156479218
sg29
F281073.0
ssS'JAEDICKE ROBERT'
p327
(dp328
g3
F0.0
sg4
F0.0
sg5
F0.0
sg6
I00
sg7
F0.0
sg8
F0.0
sg10
F0.0
sg11
F-25000.0
sg12
F515500.0
sg13
F-44093.0
sg14
F0.0
sg15
F0.0
sg16
F0.0
sg17
F0.0
sg18
F0.0
sg19
F108750.0
sg20
F0.0
sg21
F431750.0
sg22
F0.0
sg23
F0.0
sg24
F44093.0
sg25
F0.0
sg26
F0.0
sg27
F83750.0
sg28
F0.0
sg29
F431750.0
ssS'WINOKUR JR. HERBERT S'
p329
(dp330
g3
F0.0
sg4
F0.0
sg5
F1413.0
sg6
I00
sg7
F0.0
sg8
F0.0
sg10
F0.0
sg11
F-25000.0
sg12
F84992.0
sg13
F0.0
sg14
F0.0
sg15
F0.0
sg16
F0.0
sg17
F0.0
sg18
F0.0
sg19
F108579.0
sg20
F0.0
sg21
F0.0
sg22
F0.0
sg23
F0.0
sg24
F0.0
sg25
F0.0
sg26
F0.0
sg27
F84992.0
sg28
F0.0
sg29
F0.0
ssS'BROWN MICHAEL'
p331
(dp332
g3
F1486.0
sg4
F0.0
sg5
F49288.0
sg6
I00
sg7
F0.0
sg8
S'michael.brown@enron.com'
p333
sg10
F13.0
sg11
F0.0
sg12
F49288.0
sg13
F0.0
sg14
F761.0
sg15
F0.0
sg16
F41.0
sg17
F0.0
sg18
F0.0006729475100942127
sg19
F0.0
sg20
F0.0
sg21
F0.0
sg22
F1.0
sg23
F0.3170731707317073
sg24
F0.0
sg25
F0.0
sg26
F2288.0
sg27
F49288.0
sg28
F0.0091683038637852
sg29
F0.0
ssS'BADUM JAMES P'
p334
(dp335
g3
F0.0
sg4
F178980.0
sg5
F3486.0
sg6
I00
sg7
F0.0
sg8
F0.0
sg10
F0.0
sg11
F0.0
sg12
F440283.0
sg13
F0.0
sg14
F0.0
sg15
F0.0
sg16
F0.0
sg17
F0.0
sg18
F0.0
sg19
F0.0
sg20
F0.0
sg21
F257817.0
sg22
F0.0
sg23
F0.0
sg24
F0.0
sg25
F0.0
sg26
F0.0
sg27
F182466.0
sg28
F0.0
sg29
F257817.0
ssS'HUGHES JAMES A'
p336
(dp337
g3
F719.0
sg4
F0.0
sg5
F0.0
sg6
I00
sg7
F0.0
sg8
S'james.hughes@enron.com'
p338
sg10
F35.0
sg11
F0.0
sg12
F754966.0
sg13
F0.0
sg14
F589.0
sg15
F0.0
sg16
F34.0
sg17
F0.0
sg18
F0.006954102920723227
sg19
F0.0
sg20
F0.0
sg21
F1118394.0
sg22
F5.0
sg23
F1.0294117647058822
sg24
F363428.0
sg25
F0.0
sg26
F1342.0
sg27
F0.0
sg28
F0.05312084993359894
sg29
F754966.0
ssS'REYNOLDS LAWRENCE'
p339
(dp340
g3
F0.0
sg4
F51365.0
sg5
F8409.0
sg6
I00
sg7
F156250.0
sg8
F0.0
sg10
F0.0
sg11
F-200000.0
sg12
F4555147.0
sg13
F-140264.0
sg14
F0.0
sg15
F0.0
sg16
F0.0
sg17
F202052.0
sg18
F0.0
sg19
F0.0
sg20
F100000.0
sg21
F4221891.0
sg22
F0.0
sg23
F0.0
sg24
F201483.0
sg25
F76399.0
sg26
F0.0
sg27
F394475.0
sg28
F0.0
sg29
F4160672.0
ssS'DIMICHELE RICHARD G'
p341
(dp342
g3
F0.0
sg4
F0.0
sg5
F35812.0
sg6
I00
sg7
F694862.0
sg8
S'richard.dimichele@enron.com'
p343
sg10
F0.0
sg11
F0.0
sg12
F10559906.0
sg13
F0.0
sg14
F0.0
sg15
F0.0
sg16
F0.0
sg17
F374689.0
sg18
F0.0
sg19
F0.0
sg20
F1000000.0
sg21
F8317782.0
sg22
F0.0
sg23
F0.0
sg24
F126027.0
sg25
F262788.0
sg26
F0.0
sg27
F2368151.0
sg28
F0.0
sg29
F8191755.0
ssS'BHATNAGAR SANJAY'
p344
(dp345
g3
F523.0
sg4
F0.0
sg5
F0.0
sg6
I00
sg7
F0.0
sg8
S'sanjay.bhatnagar@enron.com'
p346
sg10
F0.0
sg11
F0.0
sg12
F18060780.0
sg13
F15456290.0
sg14
F463.0
sg15
F0.0
sg16
F29.0
sg17
F137864.0
sg18
F0.0019120458891013384
sg19
F137864.0
sg20
F0.0
sg21
F0.0
sg22
F1.0
sg23
F0.0
sg24
F-2604490.0
sg25
F0.0
sg26
F1015.0
sg27
F15456290.0
sg28
F0.0018115942028985507
sg29
F2604490.0
ssS'CARTER REBECCA C'
p347
(dp348
g3
F312.0
sg4
F0.0
sg5
F0.0
sg6
I00
sg7
F75000.0
sg8
S'rebecca.carter@enron.com'
p349
sg10
F29.0
sg11
F-159792.0
sg12
F477557.0
sg13
F-307301.0
sg14
F196.0
sg15
F0.0
sg16
F15.0
sg17
F540.0
sg18
F0.022435897435897436
sg19
F0.0
sg20
F300000.0
sg21
F0.0
sg22
F7.0
sg23
F1.9333333333333333
sg24
F307301.0
sg25
F261809.0
sg26
F523.0
sg27
F477557.0
sg28
F0.11009174311926606
sg29
F0.0
ssS'BUCHANAN HAROLD G'
p350
(dp351
g3
F1088.0
sg4
F0.0
sg5
F600.0
sg6
I00
sg7
F304805.0
sg8
S'john.buchanan@enron.com'
p352
sg10
F0.0
sg11
F0.0
sg12
F1880101.0
sg13
F0.0
sg14
F23.0
sg15
F0.0
sg16
F125.0
sg17
F1215.0
sg18
F0.0
sg19
F0.0
sg20
F500000.0
sg21
F1014505.0
sg22
F0.0
sg23
F0.0
sg24
F189041.0
sg25
F248017.0
sg26
F1236.0
sg27
F1054637.0
sg28
F0.0
sg29
F825464.0
ssS'YEAP SOON'
p353
(dp354
g3
F0.0
sg4
F0.0
sg5
F55097.0
sg6
I00
sg7
F0.0
sg8
F0.0
sg10
F0.0
sg11
F0.0
sg12
F247855.0
sg13
F0.0
sg14
F0.0
sg15
F0.0
sg16
F0.0
sg17
F0.0
sg18
F0.0
sg19
F0.0
sg20
F0.0
sg21
F192758.0
sg22
F0.0
sg23
F0.0
sg24
F0.0
sg25
F0.0
sg26
F0.0
sg27
F55097.0
sg28
F0.0
sg29
F192758.0
ssS'MURRAY JULIA H'
p355
(dp356
g3
F2192.0
sg4
F0.0
sg5
F57580.0
sg6
I00
sg7
F125000.0
sg8
S'julia.murray@enron.com'
p357
sg10
F11.0
sg11
F0.0
sg12
F1212672.0
sg13
F0.0
sg14
F395.0
sg15
F0.0
sg16
F45.0
sg17
F330.0
sg18
F0.0009124087591240876
sg19
F0.0
sg20
F400000.0
sg21
F597461.0
sg22
F2.0
sg23
F0.24444444444444444
sg24
F196983.0
sg25
F229284.0
sg26
F2632.0
sg27
F812194.0
sg28
F0.00581135449262405
sg29
F400478.0
ssS'GARLAND C KEVIN'
p358
(dp359
g3
F209.0
sg4
F0.0
sg5
F48405.0
sg6
I00
sg7
F375304.0
sg8
S'kevin.garland@enron.com'
p360
sg10
F10.0
sg11
F0.0
sg12
F2202715.0
sg13
F0.0
sg14
F178.0
sg15
F0.0
sg16
F44.0
sg17
F60814.0
sg18
F0.1291866028708134
sg19
F0.0
sg20
F850000.0
sg21
F896153.0
sg22
F27.0
sg23
F0.22727272727272727
sg24
F259907.0
sg25
F231946.0
sg26
F431.0
sg27
F1566469.0
sg28
F0.14624505928853754
sg29
F636246.0
ssS'DODSON KEITH'
p361
(dp362
g3
F176.0
sg4
F0.0
sg5
F28164.0
sg6
I00
sg7
F0.0
sg8
S'keith.dodson@enron.com'
p363
sg10
F10.0
sg11
F0.0
sg12
F319941.0
sg13
F0.0
sg14
F114.0
sg15
F0.0
sg16
F14.0
sg17
F774.0
sg18
F0.017045454545454544
sg19
F0.0
sg20
F70000.0
sg21
F0.0
sg22
F3.0
sg23
F0.7142857142857143
sg24
F0.0
sg25
F221003.0
sg26
F304.0
sg27
F319941.0
sg28
F0.06842105263157895
sg29
F0.0
ssS'YEAGER F SCOTT'
p364
(dp365
g3
F0.0
sg4
F0.0
sg5
F53947.0
sg6
I01
sg7
F0.0
sg8
S'scott.yeager@enron.com'
p366
sg10
F0.0
sg11
F0.0
sg12
F8668852.0
sg13
F0.0
sg14
F0.0
sg15
F0.0
sg16
F0.0
sg17
F147950.0
sg18
F0.0
sg19
F0.0
sg20
F0.0
sg21
F11884758.0
sg22
F0.0
sg23
F0.0
sg24
F3576206.0
sg25
F158403.0
sg26
F0.0
sg27
F360300.0
sg28
F0.0
sg29
F8308552.0
ssS'HIRKO JOSEPH'
p367
(dp368
g3
F0.0
sg4
F10259.0
sg5
F77978.0
sg6
I01
sg7
F0.0
sg8
S'joe.hirko@enron.com'
p369
sg10
F0.0
sg11
F0.0
sg12
F30857157.0
sg13
F0.0
sg14
F0.0
sg15
F0.0
sg16
F0.0
sg17
F2856.0
sg18
F0.0
sg19
F0.0
sg20
F0.0
sg21
F30766064.0
sg22
F0.0
sg23
F0.0
sg24
F0.0
sg25
F0.0
sg26
F0.0
sg27
F91093.0
sg28
F0.0
sg29
F30766064.0
ssS'DIETRICH JANET R'
p370
(dp371
g3
F2572.0
sg4
F0.0
sg5
F3475.0
sg6
I00
sg7
F556416.0
sg8
S'janet.dietrich@enron.com'
p372
sg10
F305.0
sg11
F0.0
sg12
F2960483.0
sg13
F0.0
sg14
F1902.0
sg15
F0.0
sg16
F63.0
sg17
F473.0
sg18
F0.005443234836702955
sg19
F0.0
sg20
F600000.0
sg21
F1865087.0
sg22
F14.0
sg23
F4.841269841269841
sg24
F315068.0
sg25
F250100.0
sg26
F4537.0
sg27
F1410464.0
sg28
F0.12106261859582543
sg29
F1550019.0
ssS'DERRICK JR. JAMES V'
p373
(dp374
g3
F2181.0
sg4
F0.0
sg5
F51124.0
sg6
I00
sg7
F484000.0
sg8
S'james.derrick@enron.com'
p375
sg10
F64.0
sg11
F-1284000.0
sg12
F9382894.0
sg13
F-1787380.0
sg14
F1401.0
sg15
F0.0
sg16
F909.0
sg17
F7482.0
sg18
F0.009170105456212746
sg19
F0.0
sg20
F800000.0
sg21
F8831913.0
sg22
F20.0
sg23
F0.0704070407040704
sg24
F1787380.0
sg25
F492375.0
sg26
F4491.0
sg27
F550981.0
sg28
F0.027184466019417475
sg29
F8831913.0
ssS'FREVERT MARK A'
p376
(dp377
g3
F3275.0
sg4
F6426990.0
sg5
F86987.0
sg6
I00
sg7
F1617011.0
sg8
S'mark.frevert@enron.com'
p378
sg10
F242.0
sg11
F-3367011.0
sg12
F27686048.0
sg13
F0.0
sg14
F2979.0
sg15
F2000000.0
sg16
F21.0
sg17
F7427621.0
sg18
F0.00183206106870229
sg19
F0.0
sg20
F2000000.0
sg21
F14622185.0
sg22
F6.0
sg23
F11.523809523809524
sg24
F4188667.0
sg25
F1060932.0
sg26
F6275.0
sg27
F17252530.0
sg28
F0.07524271844660194
sg29
F10433518.0
ssS'PAI LOU L'
p379
(dp380
g3
F0.0
sg4
F0.0
sg5
F32047.0
sg6
I00
sg7
F0.0
sg8
S'lou.pai@enron.com'
p381
sg10
F0.0
sg11
F0.0
sg12
F18487550.0
sg13
F0.0
sg14
F0.0
sg15
F0.0
sg16
F0.0
sg17
F1829457.0
sg18
F0.0
sg19
F0.0
sg20
F1000000.0
sg21
F23817930.0
sg22
F0.0
sg23
F0.0
sg24
F8453763.0
sg25
F261879.0
sg26
F0.0
sg27
F3123383.0
sg28
F0.0
sg29
F15364167.0
ssS'BAY FRANKLIN R'
p382
(dp383
g3
F0.0
sg4
F260455.0
sg5
F129142.0
sg6
I00
sg7
F0.0
sg8
S'frank.bay@enron.com'
p384
sg10
F0.0
sg11
F-201641.0
sg12
F827696.0
sg13
F-82782.0
sg14
F0.0
sg15
F0.0
sg16
F0.0
sg17
F69.0
sg18
F0.0
sg19
F0.0
sg20
F400000.0
sg21
F63014.0
sg22
F0.0
sg23
F0.0
sg24
F145796.0
sg25
F239671.0
sg26
F0.0
sg27
F827696.0
sg28
F0.0
sg29
F0.0
ssS'HAYSLETT RODERICK J'
p385
(dp386
g3
F2649.0
sg4
F0.0
sg5
F0.0
sg6
I00
sg7
F0.0
sg8
S'rod.hayslett@enron.com'
p387
sg10
F35.0
sg11
F0.0
sg12
F0.0
sg13
F0.0
sg14
F571.0
sg15
F0.0
sg16
F1061.0
sg17
F0.0
sg18
F0.014345035862589657
sg19
F0.0
sg20
F0.0
sg21
F346663.0
sg22
F38.0
sg23
F0.03298774740810556
sg24
F346663.0
sg25
F0.0
sg26
F4281.0
sg27
F0.0
sg28
F0.019676549865229112
sg29
F0.0
ssS'FUGH JOHN L'
p388
(dp389
g3
F0.0
sg4
F50591.0
sg5
F0.0
sg6
I00
sg7
F0.0
sg8
F0.0
sg10
F0.0
sg11
F0.0
sg12
F226969.0
sg13
F0.0
sg14
F0.0
sg15
F0.0
sg16
F0.0
sg17
F0.0
sg18
F0.0
sg19
F0.0
sg20
F0.0
sg21
F176378.0
sg22
F0.0
sg23
F0.0
sg24
F0.0
sg25
F0.0
sg26
F0.0
sg27
F50591.0
sg28
F0.0
sg29
F176378.0
ssS'FALLON JAMES B'
p390
(dp391
g3
F1755.0
sg4
F0.0
sg5
F95924.0
sg6
I00
sg7
F374347.0
sg8
S'jim.fallon@enron.com'
p392
sg10
F42.0
sg11
F0.0
sg12
F4616597.0
sg13
F0.0
sg14
F1604.0
sg15
F0.0
sg16
F75.0
sg17
F401481.0
sg18
F0.021082621082621083
sg19
F0.0
sg20
F2500000.0
sg21
F2332399.0
sg22
F37.0
sg23
F0.56
sg24
F1392142.0
sg25
F304588.0
sg26
F3434.0
sg27
F3676340.0
sg28
F0.04316939890710383
sg29
F940257.0
ssS'KOENIG MARK E'
p393
(dp394
g3
F2374.0
sg4
F0.0
sg5
F127017.0
sg6
I01
sg7
F300000.0
sg8
S'mark.koenig@enron.com'
p395
sg10
F53.0
sg11
F0.0
sg12
F2259158.0
sg13
F0.0
sg14
F2271.0
sg15
F0.0
sg16
F61.0
sg17
F150458.0
sg18
F0.006318449873631003
sg19
F0.0
sg20
F700000.0
sg21
F1920055.0
sg22
F15.0
sg23
F0.8688524590163934
sg24
F1248318.0
sg25
F309946.0
sg26
F4706.0
sg27
F1587421.0
sg28
F0.02792607802874743
sg29
F671737.0
ssS'SAVAGE FRANK'
p396
(dp397
g3
F0.0
sg4
F0.0
sg5
F0.0
sg6
I00
sg7
F0.0
sg8
F0.0
sg10
F0.0
sg11
F-121284.0
sg12
F3750.0
sg13
F0.0
sg14
F0.0
sg15
F0.0
sg16
F0.0
sg17
F0.0
sg18
F0.0
sg19
F125034.0
sg20
F0.0
sg21
F0.0
sg22
F0.0
sg23
F0.0
sg24
F0.0
sg25
F0.0
sg26
F0.0
sg27
F3750.0
sg28
F0.0
sg29
F0.0
ssS'IZZO LAWRENCE L'
p398
(dp399
g3
F496.0
sg4
F0.0
sg5
F28093.0
sg6
I00
sg7
F312500.0
sg8
S'larry.izzo@enron.com'
p400
sg10
F28.0
sg11
F0.0
sg12
F4144768.0
sg13
F0.0
sg14
F437.0
sg15
F0.0
sg16
F19.0
sg17
F1553729.0
sg18
F0.010080645161290322
sg19
F0.0
sg20
F0.0
sg21
F5819980.0
sg22
F5.0
sg23
F1.4736842105263157
sg24
F3654808.0
sg25
F85274.0
sg26
F952.0
sg27
F1979596.0
sg28
F0.06407766990291262
sg29
F2165172.0
ssS'TILNEY ELIZABETH A'
p401
(dp402
g3
F460.0
sg4
F0.0
sg5
F0.0
sg6
I00
sg7
F275000.0
sg8
S'elizabeth.tilney@enron.com'
p403
sg10
F10.0
sg11
F-575000.0
sg12
F990643.0
sg13
F0.0
sg14
F379.0
sg15
F0.0
sg16
F19.0
sg17
F152055.0
sg18
F0.02391304347826087
sg19
F0.0
sg20
F300000.0
sg21
F1168042.0
sg22
F11.0
sg23
F0.5263157894736842
sg24
F576792.0
sg25
F247338.0
sg26
F858.0
sg27
F399393.0
sg28
F0.04384133611691023
sg29
F591250.0
ssS'MARTIN AMANDA K'
p404
(dp405
g3
F1522.0
sg4
F85430.0
sg5
F8211.0
sg6
I00
sg7
F5145434.0
sg8
S'a..martin@enron.com'
p406
sg10
F8.0
sg11
F0.0
sg12
F10477322.0
sg13
F0.0
sg14
F477.0
sg15
F0.0
sg16
F230.0
sg17
F2818454.0
sg18
F0.0
sg19
F0.0
sg20
F0.0
sg21
F2070306.0
sg22
F0.0
sg23
F0.034782608695652174
sg24
F0.0
sg25
F349487.0
sg26
F2229.0
sg27
F8407016.0
sg28
F0.0045662100456621
sg29
F2070306.0
ssS'BUY RICHARD B'
p407
(dp408
g3
F3523.0
sg4
F649584.0
sg5
F0.0
sg6
I00
sg7
F769862.0
sg8
S'rick.buy@enron.com'
p409
sg10
F156.0
sg11
F-694862.0
sg12
F4898515.0
sg13
F0.0
sg14
F2333.0
sg15
F0.0
sg16
F1053.0
sg17
F400572.0
sg18
F0.02015327845586148
sg19
F0.0
sg20
F900000.0
sg21
F3444470.0
sg22
F71.0
sg23
F0.14814814814814814
sg24
F901657.0
sg25
F330546.0
sg26
F6909.0
sg27
F2355702.0
sg28
F0.04960664335664336
sg29
F2542813.0
ssS'GRAMM WENDY L'
p410
(dp411
g3
F0.0
sg4
F0.0
sg5
F0.0
sg6
I00
sg7
F0.0
sg8
F0.0
sg10
F0.0
sg11
F0.0
sg12
F119292.0
sg13
F0.0
sg14
F0.0
sg15
F0.0
sg16
F0.0
sg17
F0.0
sg18
F0.0
sg19
F119292.0
sg20
F0.0
sg21
F0.0
sg22
F0.0
sg23
F0.0
sg24
F0.0
sg25
F0.0
sg26
F0.0
sg27
F119292.0
sg28
F0.0
sg29
F0.0
ssS'CAUSEY RICHARD A'
p412
(dp413
g3
F1892.0
sg4
F0.0
sg5
F30674.0
sg6
I01
sg7
F350000.0
sg8
S'richard.causey@enron.com'
p414
sg10
F58.0
sg11
F-235000.0
sg12
F1868758.0
sg13
F0.0
sg14
F1585.0
sg15
F0.0
sg16
F49.0
sg17
F307895.0
sg18
F0.006342494714587738
sg19
F0.0
sg20
F1000000.0
sg21
F2502063.0
sg22
F12.0
sg23
F1.183673469387755
sg24
F2502063.0
sg25
F415189.0
sg26
F3526.0
sg27
F1868758.0
sg28
F0.03606388459556929
sg29
F0.0
ssS'TAYLOR MITCHELL S'
p415
(dp416
g3
F533.0
sg4
F227449.0
sg5
F0.0
sg6
I00
sg7
F0.0
sg8
S'mitchell.taylor@enron.com'
p417
sg10
F0.0
sg11
F0.0
sg12
F4273913.0
sg13
F0.0
sg14
F300.0
sg15
F0.0
sg16
F29.0
sg17
F0.0
sg18
F0.0
sg19
F0.0
sg20
F600000.0
sg21
F3745048.0
sg22
F0.0
sg23
F0.0
sg24
F563798.0
sg25
F265214.0
sg26
F862.0
sg27
F1092663.0
sg28
F0.0
sg29
F3181250.0
ssS'DONAHUE JR JEFFREY M'
p418
(dp419
g3
F865.0
sg4
F0.0
sg5
F96268.0
sg6
I00
sg7
F0.0
sg8
S'jeff.donahue@enron.com'
p420
sg10
F188.0
sg11
F-300000.0
sg12
F1641680.0
sg13
F0.0
sg14
F772.0
sg15
F0.0
sg16
F22.0
sg17
F891.0
sg18
F0.012716763005780347
sg19
F0.0
sg20
F800000.0
sg21
F1080988.0
sg22
F11.0
sg23
F8.545454545454545
sg24
F315068.0
sg25
F278601.0
sg26
F1659.0
sg27
F875760.0
sg28
F0.22435174746335965
sg29
F765920.0
ssS'GLISAN JR BEN F'
p421
(dp422
g3
F873.0
sg4
F0.0
sg5
F125978.0
sg6
I01
sg7
F71023.0
sg8
S'ben.glisan@enron.com'
p423
sg10
F52.0
sg11
F0.0
sg12
F1657012.0
sg13
F0.0
sg14
F874.0
sg15
F0.0
sg16
F16.0
sg17
F200308.0
sg18
F0.006872852233676976
sg19
F0.0
sg20
F600000.0
sg21
F778546.0
sg22
F6.0
sg23
F3.25
sg24
F393818.0
sg25
F274975.0
sg26
F1763.0
sg27
F1272284.0
sg28
F0.06524184476940383
sg29
F384728.0
ss.